target datalayout = "e-m:e-p270:32:32-p271:32:32-p272:64:64-i64:64-i128:128-f80:128-n8:16:32:64-S128"
target triple = "x86_64-pc-linux-gnu"

%struct.H5T_t = type { %struct.H5O_shared_t, ptr, %struct.H5O_loc_t, %struct.H5G_name_t, ptr }
%struct.H5O_shared_t = type { i32, ptr, i32, %union.anon }
%union.anon = type { %struct.H5O_mesg_loc_t }
%struct.H5O_mesg_loc_t = type { i32, i64 }
%struct.H5O_loc_t = type { ptr, i64, i8 }
%struct.H5G_name_t = type { ptr, ptr, i32 }
%struct.H5O_obj_create_t = type { i32, ptr, ptr }
%struct.H5T_obj_create_t = type { ptr, i64 }
%struct.H5T_shared_t = type { i64, i32, i32, i64, i32, i8, ptr, ptr, %union.anon.0 }
%union.anon.0 = type { %struct.H5T_array_t }
%struct.H5T_array_t = type { i64, i32, [32 x i64] }

@H5_libterm_g = external global i8, align 1
@.str = private unnamed_addr constant [103 x i8] c"generated/home/dtcxzyw/WorkSpace/Projects/compilers/llvm-opt-benchmark/bench/hdf5/hdf5/src/H5Tcommit.c\00", align 1
@H5E_CANTINIT_g = external global i64, align 8
@H5T_init_g = external global i8, align 1
@H5E_DATATYPE_g = external global i64, align 8
@__func__.H5T__commit_named = private unnamed_addr constant [18 x i8] c"H5T__commit_named\00", align 1
@.str.18 = private unnamed_addr constant [44 x i8] c"unable to create and link to named datatype\00", align 1
@H5E_DATASET_g = external global i64, align 8
@H5E_CANTRELEASE_g = external global i64, align 8
@.str.19 = private unnamed_addr constant [33 x i8] c"can't decrement count for object\00", align 1
@.str.20 = private unnamed_addr constant [47 x i8] c"can't remove dataset from list of open objects\00", align 1
@H5E_CLOSEERROR_g = external global i64, align 8
@.str.21 = private unnamed_addr constant [32 x i8] c"unable to release object header\00", align 1
@H5E_CANTDELETE_g = external global i64, align 8
@.str.22 = private unnamed_addr constant [31 x i8] c"unable to delete object header\00", align 1
@.str.23 = private unnamed_addr constant [36 x i8] c"unable to return datatype to memory\00", align 1

; Function Attrs: nounwind uwtable
define i32 @H5T__commit_named(ptr noundef %0, ptr noundef %1, ptr noundef %2, i64 noundef %3, i64 noundef %4) #0 {
  %6 = alloca ptr, align 8
  %7 = alloca ptr, align 8
  %8 = alloca ptr, align 8
  %9 = alloca i64, align 8
  %10 = alloca i64, align 8
  %11 = alloca %struct.H5O_obj_create_t, align 8
  %12 = alloca %struct.H5T_obj_create_t, align 8
  %13 = alloca i32, align 4
  %14 = alloca i32, align 4
  %15 = alloca i8, align 1
  store ptr %0, ptr %6, align 8, !tbaa !32
  store ptr %1, ptr %7, align 8, !tbaa !7
  store ptr %2, ptr %8, align 8, !tbaa !21
  store i64 %3, ptr %9, align 8, !tbaa !3
  store i64 %4, ptr %10, align 8, !tbaa !3
  call void @llvm.lifetime.start.p0(i64 24, ptr %11) #7
  call void @llvm.lifetime.start.p0(i64 16, ptr %12) #7
  call void @llvm.lifetime.start.p0(i64 4, ptr %13) #7
  call void @llvm.lifetime.start.p0(i64 4, ptr %14) #7
  store i32 0, ptr %14, align 4, !tbaa !10
  call void @llvm.lifetime.start.p0(i64 1, ptr %15) #7
  store i8 0, ptr %15, align 1, !tbaa !12
  %16 = load i8, ptr @H5T_init_g, align 1, !tbaa !12, !range !14, !noundef !15
  %17 = trunc i8 %16 to i1
  br i1 %17, label %22, label %18

18:                                               ; preds = %5
  %19 = load i8, ptr @H5_libterm_g, align 1, !tbaa !12, !range !14, !noundef !15
  %20 = trunc i8 %19 to i1
  %21 = xor i1 %20, true
  br label %22

22:                                               ; preds = %18, %5
  %23 = phi i1 [ true, %5 ], [ %21, %18 ]
  %24 = xor i1 %23, true
  %25 = xor i1 %24, true
  %26 = zext i1 %25 to i32
  %27 = sext i32 %26 to i64
  %28 = call i64 @llvm.expect.i64(i64 %27, i64 1)
  %29 = icmp ne i64 %28, 0
  br i1 %29, label %30, label %224

30:                                               ; preds = %22
  %31 = load ptr, ptr %8, align 8, !tbaa !21
  %32 = getelementptr inbounds nuw %struct.H5T_t, ptr %31, i32 0, i32 1
  %33 = load ptr, ptr %32, align 8, !tbaa !34
  %34 = getelementptr inbounds nuw %struct.H5T_shared_t, ptr %33, i32 0, i32 1
  %35 = load i32, ptr %34, align 8, !tbaa !35
  store i32 %35, ptr %13, align 4, !tbaa !10
  %36 = load ptr, ptr %8, align 8, !tbaa !21
  %37 = getelementptr inbounds nuw %struct.H5T_obj_create_t, ptr %12, i32 0, i32 0
  store ptr %36, ptr %37, align 8, !tbaa !37
  %38 = load i64, ptr %10, align 8, !tbaa !3
  %39 = getelementptr inbounds nuw %struct.H5T_obj_create_t, ptr %12, i32 0, i32 1
  store i64 %38, ptr %39, align 8, !tbaa !39
  %40 = getelementptr inbounds nuw %struct.H5O_obj_create_t, ptr %11, i32 0, i32 0
  store i32 2, ptr %40, align 8, !tbaa !40
  %41 = getelementptr inbounds nuw %struct.H5O_obj_create_t, ptr %11, i32 0, i32 1
  store ptr %12, ptr %41, align 8, !tbaa !42
  %42 = getelementptr inbounds nuw %struct.H5O_obj_create_t, ptr %11, i32 0, i32 2
  store ptr null, ptr %42, align 8, !tbaa !43
  %43 = load ptr, ptr %6, align 8, !tbaa !32
  %44 = load ptr, ptr %7, align 8, !tbaa !7
  %45 = load i64, ptr %9, align 8, !tbaa !3
  %46 = call i32 @H5L_link_object(ptr noundef %43, ptr noundef %44, ptr noundef %11, i64 noundef %45)
  %47 = icmp slt i32 %46, 0
  br i1 %47, label %48, label %67

48:                                               ; preds = %30
  br label %49

49:                                               ; preds = %48
  br label %50

50:                                               ; preds = %49
  br label %51

51:                                               ; preds = %50
  %52 = load i64, ptr @H5E_DATATYPE_g, align 8, !tbaa !3
  %53 = load i64, ptr @H5E_CANTINIT_g, align 8, !tbaa !3
  %54 = call i32 (ptr, ptr, i32, i64, i64, ptr, ...) @H5E_printf_stack(ptr noundef @.str, ptr noundef @__func__.H5T__commit_named, i32 noundef 257, i64 noundef %52, i64 noundef %53, ptr noundef @.str.18)
  br label %55

55:                                               ; preds = %51
  br label %56

56:                                               ; preds = %55
  store i8 1, ptr %15, align 1, !tbaa !12
  %57 = load i8, ptr %15, align 1, !tbaa !12, !range !14, !noundef !15
  %58 = trunc i8 %57 to i1
  %59 = zext i1 %58 to i8
  store i8 %59, ptr %15, align 1, !tbaa !12
  br label %60

60:                                               ; preds = %56
  br label %61

61:                                               ; preds = %60
  br label %62

62:                                               ; preds = %61
  store i32 -1, ptr %14, align 4, !tbaa !10
  br label %68

63:                                               ; No predecessors!
  br label %64

64:                                               ; preds = %63
  br label %65

65:                                               ; preds = %64
  br label %66

66:                                               ; preds = %65
  br label %67

67:                                               ; preds = %66, %30
  br label %68

68:                                               ; preds = %67, %62
  %69 = load i32, ptr %14, align 4, !tbaa !10
  %70 = icmp slt i32 %69, 0
  br i1 %70, label %71, label %223

71:                                               ; preds = %68
  %72 = getelementptr inbounds nuw %struct.H5O_obj_create_t, ptr %11, i32 0, i32 2
  %73 = load ptr, ptr %72, align 8, !tbaa !43
  %74 = icmp ne ptr null, %73
  br i1 %74, label %75, label %223

75:                                               ; preds = %71
  %76 = load ptr, ptr %8, align 8, !tbaa !21
  %77 = getelementptr inbounds nuw %struct.H5T_t, ptr %76, i32 0, i32 1
  %78 = load ptr, ptr %77, align 8, !tbaa !34
  %79 = getelementptr inbounds nuw %struct.H5T_shared_t, ptr %78, i32 0, i32 1
  %80 = load i32, ptr %79, align 8, !tbaa !35
  %81 = icmp eq i32 %80, 4
  br i1 %81, label %82, label %222

82:                                               ; preds = %75
  %83 = load ptr, ptr %8, align 8, !tbaa !21
  %84 = getelementptr inbounds nuw %struct.H5T_t, ptr %83, i32 0, i32 0
  %85 = getelementptr inbounds nuw %struct.H5O_shared_t, ptr %84, i32 0, i32 0
  %86 = load i32, ptr %85, align 8, !tbaa !44
  %87 = icmp eq i32 %86, 2
  br i1 %87, label %88, label %222

88:                                               ; preds = %82
  %89 = load ptr, ptr %8, align 8, !tbaa !21
  %90 = getelementptr inbounds nuw %struct.H5T_t, ptr %89, i32 0, i32 0
  %91 = getelementptr inbounds nuw %struct.H5O_shared_t, ptr %90, i32 0, i32 1
  %92 = load ptr, ptr %91, align 8, !tbaa !45
  %93 = load ptr, ptr %8, align 8, !tbaa !21
  %94 = getelementptr inbounds nuw %struct.H5T_t, ptr %93, i32 0, i32 0
  %95 = getelementptr inbounds nuw %struct.H5O_shared_t, ptr %94, i32 0, i32 3
  %96 = getelementptr inbounds nuw %struct.H5O_mesg_loc_t, ptr %95, i32 0, i32 1
  %97 = load i64, ptr %96, align 8, !tbaa !23
  %98 = call i32 @H5FO_top_decr(ptr noundef %92, i64 noundef %97)
  %99 = icmp slt i32 %98, 0
  br i1 %99, label %100, label %116

100:                                              ; preds = %88
  br label %101

101:                                              ; preds = %100
  br label %102

102:                                              ; preds = %101
  br label %103

103:                                              ; preds = %102
  %104 = load i64, ptr @H5E_DATASET_g, align 8, !tbaa !3
  %105 = load i64, ptr @H5E_CANTRELEASE_g, align 8, !tbaa !3
  %106 = call i32 (ptr, ptr, i32, i64, i64, ptr, ...) @H5E_printf_stack(ptr noundef @.str, ptr noundef @__func__.H5T__commit_named, i32 noundef 268, i64 noundef %104, i64 noundef %105, ptr noundef @.str.19)
  br label %107

107:                                              ; preds = %103
  br label %108

108:                                              ; preds = %107
  store i8 1, ptr %15, align 1, !tbaa !12
  %109 = load i8, ptr %15, align 1, !tbaa !12, !range !14, !noundef !15
  %110 = trunc i8 %109 to i1
  %111 = zext i1 %110 to i8
  store i8 %111, ptr %15, align 1, !tbaa !12
  br label %112

112:                                              ; preds = %108
  br label %113

113:                                              ; preds = %112
  store i32 -1, ptr %14, align 4, !tbaa !10
  br label %114

114:                                              ; preds = %113
  br label %115

115:                                              ; preds = %114
  br label %116

116:                                              ; preds = %115, %88
  %117 = load ptr, ptr %8, align 8, !tbaa !21
  %118 = getelementptr inbounds nuw %struct.H5T_t, ptr %117, i32 0, i32 0
  %119 = getelementptr inbounds nuw %struct.H5O_shared_t, ptr %118, i32 0, i32 1
  %120 = load ptr, ptr %119, align 8, !tbaa !45
  %121 = load ptr, ptr %8, align 8, !tbaa !21
  %122 = getelementptr inbounds nuw %struct.H5T_t, ptr %121, i32 0, i32 0
  %123 = getelementptr inbounds nuw %struct.H5O_shared_t, ptr %122, i32 0, i32 3
  %124 = getelementptr inbounds nuw %struct.H5O_mesg_loc_t, ptr %123, i32 0, i32 1
  %125 = load i64, ptr %124, align 8, !tbaa !23
  %126 = call i32 @H5FO_delete(ptr noundef %120, i64 noundef %125)
  %127 = icmp slt i32 %126, 0
  br i1 %127, label %128, label %144

128:                                              ; preds = %116
  br label %129

129:                                              ; preds = %128
  br label %130

130:                                              ; preds = %129
  br label %131

131:                                              ; preds = %130
  %132 = load i64, ptr @H5E_DATASET_g, align 8, !tbaa !3
  %133 = load i64, ptr @H5E_CANTRELEASE_g, align 8, !tbaa !3
  %134 = call i32 (ptr, ptr, i32, i64, i64, ptr, ...) @H5E_printf_stack(ptr noundef @.str, ptr noundef @__func__.H5T__commit_named, i32 noundef 271, i64 noundef %132, i64 noundef %133, ptr noundef @.str.20)
  br label %135

135:                                              ; preds = %131
  br label %136

136:                                              ; preds = %135
  store i8 1, ptr %15, align 1, !tbaa !12
  %137 = load i8, ptr %15, align 1, !tbaa !12, !range !14, !noundef !15
  %138 = trunc i8 %137 to i1
  %139 = zext i1 %138 to i8
  store i8 %139, ptr %15, align 1, !tbaa !12
  br label %140

140:                                              ; preds = %136
  br label %141

141:                                              ; preds = %140
  store i32 -1, ptr %14, align 4, !tbaa !10
  br label %142

142:                                              ; preds = %141
  br label %143

143:                                              ; preds = %142
  br label %144

144:                                              ; preds = %143, %116
  %145 = load ptr, ptr %8, align 8, !tbaa !21
  %146 = getelementptr inbounds nuw %struct.H5T_t, ptr %145, i32 0, i32 2
  %147 = call i32 @H5O_close(ptr noundef %146, ptr noundef null)
  %148 = icmp slt i32 %147, 0
  br i1 %148, label %149, label %165

149:                                              ; preds = %144
  br label %150

150:                                              ; preds = %149
  br label %151

151:                                              ; preds = %150
  br label %152

152:                                              ; preds = %151
  %153 = load i64, ptr @H5E_DATATYPE_g, align 8, !tbaa !3
  %154 = load i64, ptr @H5E_CLOSEERROR_g, align 8, !tbaa !3
  %155 = call i32 (ptr, ptr, i32, i64, i64, ptr, ...) @H5E_printf_stack(ptr noundef @.str, ptr noundef @__func__.H5T__commit_named, i32 noundef 275, i64 noundef %153, i64 noundef %154, ptr noundef @.str.21)
  br label %156

156:                                              ; preds = %152
  br label %157

157:                                              ; preds = %156
  store i8 1, ptr %15, align 1, !tbaa !12
  %158 = load i8, ptr %15, align 1, !tbaa !12, !range !14, !noundef !15
  %159 = trunc i8 %158 to i1
  %160 = zext i1 %159 to i8
  store i8 %160, ptr %15, align 1, !tbaa !12
  br label %161

161:                                              ; preds = %157
  br label %162

162:                                              ; preds = %161
  store i32 -1, ptr %14, align 4, !tbaa !10
  br label %163

163:                                              ; preds = %162
  br label %164

164:                                              ; preds = %163
  br label %165

165:                                              ; preds = %164, %144
  %166 = load ptr, ptr %8, align 8, !tbaa !21
  %167 = getelementptr inbounds nuw %struct.H5T_t, ptr %166, i32 0, i32 0
  %168 = getelementptr inbounds nuw %struct.H5O_shared_t, ptr %167, i32 0, i32 1
  %169 = load ptr, ptr %168, align 8, !tbaa !45
  %170 = load ptr, ptr %8, align 8, !tbaa !21
  %171 = getelementptr inbounds nuw %struct.H5T_t, ptr %170, i32 0, i32 0
  %172 = getelementptr inbounds nuw %struct.H5O_shared_t, ptr %171, i32 0, i32 3
  %173 = getelementptr inbounds nuw %struct.H5O_mesg_loc_t, ptr %172, i32 0, i32 1
  %174 = load i64, ptr %173, align 8, !tbaa !23
  %175 = call i32 @H5O_delete(ptr noundef %169, i64 noundef %174)
  %176 = icmp slt i32 %175, 0
  br i1 %176, label %177, label %193

177:                                              ; preds = %165
  br label %178

178:                                              ; preds = %177
  br label %179

179:                                              ; preds = %178
  br label %180

180:                                              ; preds = %179
  %181 = load i64, ptr @H5E_DATATYPE_g, align 8, !tbaa !3
  %182 = load i64, ptr @H5E_CANTDELETE_g, align 8, !tbaa !3
  %183 = call i32 (ptr, ptr, i32, i64, i64, ptr, ...) @H5E_printf_stack(ptr noundef @.str, ptr noundef @__func__.H5T__commit_named, i32 noundef 279, i64 noundef %181, i64 noundef %182, ptr noundef @.str.22)
  br label %184

184:                                              ; preds = %180
  br label %185

185:                                              ; preds = %184
  store i8 1, ptr %15, align 1, !tbaa !12
  %186 = load i8, ptr %15, align 1, !tbaa !12, !range !14, !noundef !15
  %187 = trunc i8 %186 to i1
  %188 = zext i1 %187 to i8
  store i8 %188, ptr %15, align 1, !tbaa !12
  br label %189

189:                                              ; preds = %185
  br label %190

190:                                              ; preds = %189
  store i32 -1, ptr %14, align 4, !tbaa !10
  br label %191

191:                                              ; preds = %190
  br label %192

192:                                              ; preds = %191
  br label %193

193:                                              ; preds = %192, %165
  %194 = load ptr, ptr %8, align 8, !tbaa !21
  %195 = call i32 @H5T_set_loc(ptr noundef %194, ptr noundef null, i32 noundef 1)
  %196 = icmp ne i32 %195, 0
  br i1 %196, label %197, label %213

197:                                              ; preds = %193
  br label %198

198:                                              ; preds = %197
  br label %199

199:                                              ; preds = %198
  br label %200

200:                                              ; preds = %199
  %201 = load i64, ptr @H5E_DATATYPE_g, align 8, !tbaa !3
  %202 = load i64, ptr @H5E_CANTDELETE_g, align 8, !tbaa !3
  %203 = call i32 (ptr, ptr, i32, i64, i64, ptr, ...) @H5E_printf_stack(ptr noundef @.str, ptr noundef @__func__.H5T__commit_named, i32 noundef 283, i64 noundef %201, i64 noundef %202, ptr noundef @.str.23)
  br label %204

204:                                              ; preds = %200
  br label %205

205:                                              ; preds = %204
  store i8 1, ptr %15, align 1, !tbaa !12
  %206 = load i8, ptr %15, align 1, !tbaa !12, !range !14, !noundef !15
  %207 = trunc i8 %206 to i1
  %208 = zext i1 %207 to i8
  store i8 %208, ptr %15, align 1, !tbaa !12
  br label %209

209:                                              ; preds = %205
  br label %210

210:                                              ; preds = %209
  store i32 -1, ptr %14, align 4, !tbaa !10
  br label %211

211:                                              ; preds = %210
  br label %212

212:                                              ; preds = %211
  br label %213

213:                                              ; preds = %212, %193
  %214 = load ptr, ptr %8, align 8, !tbaa !21
  %215 = getelementptr inbounds nuw %struct.H5T_t, ptr %214, i32 0, i32 0
  %216 = getelementptr inbounds nuw %struct.H5O_shared_t, ptr %215, i32 0, i32 0
  store i32 0, ptr %216, align 8, !tbaa !44
  %217 = load i32, ptr %13, align 4, !tbaa !10
  %218 = load ptr, ptr %8, align 8, !tbaa !21
  %219 = getelementptr inbounds nuw %struct.H5T_t, ptr %218, i32 0, i32 1
  %220 = load ptr, ptr %219, align 8, !tbaa !34
  %221 = getelementptr inbounds nuw %struct.H5T_shared_t, ptr %220, i32 0, i32 1
  store i32 %217, ptr %221, align 8, !tbaa !35
  br label %222

222:                                              ; preds = %213, %82, %75
  br label %223

223:                                              ; preds = %222, %71, %68
  br label %224

224:                                              ; preds = %223, %22
  %225 = load i32, ptr %14, align 4, !tbaa !10
  call void @llvm.lifetime.end.p0(i64 1, ptr %15) #7
  call void @llvm.lifetime.end.p0(i64 4, ptr %14) #7
  call void @llvm.lifetime.end.p0(i64 4, ptr %13) #7
  call void @llvm.lifetime.end.p0(i64 16, ptr %12) #7
  call void @llvm.lifetime.end.p0(i64 24, ptr %11) #7
  ret i32 %225
}