; Function Attrs: nounwind uwtable
define range(i32 -1, 1) i32 @H5T__commit_named(ptr noundef %0, ptr noundef %1, ptr noundef %2, i64 noundef %3, i64 noundef %4) local_unnamed_addr #0 {
  %6 = alloca %struct.H5O_obj_create_t, align 8
  %7 = alloca %struct.H5T_obj_create_t, align 8
  call void @llvm.lifetime.start.p0(i64 24, ptr nonnull %6) #9
  call void @llvm.lifetime.start.p0(i64 16, ptr nonnull %7) #9
  %8 = load i8, ptr @H5T_init_g, align 1, !tbaa !3, !range !7, !noundef !8
  %9 = trunc nuw i8 %8 to i1
  %10 = load i8, ptr @H5_libterm_g, align 1, !range !7
  %11 = trunc nuw i8 %10 to i1
  %12 = xor i1 %11, true
  %13 = select i1 %9, i1 true, i1 %12
  br i1 %13, label %14, label %.thread, !prof !9

14:                                               ; preds = %5
  %15 = getelementptr inbounds nuw i8, ptr %2, i64 40
  %16 = load ptr, ptr %15, align 8, !tbaa !29
  %17 = getelementptr inbounds nuw i8, ptr %16, i64 8
  %18 = load i32, ptr %17, align 8, !tbaa !30
  store ptr %2, ptr %7, align 8, !tbaa !33
  %19 = getelementptr inbounds nuw i8, ptr %7, i64 8
  store i64 %4, ptr %19, align 8, !tbaa !35
  store i32 2, ptr %6, align 8, !tbaa !36
  %20 = getelementptr inbounds nuw i8, ptr %6, i64 8
  store ptr %7, ptr %20, align 8, !tbaa !38
  %21 = getelementptr inbounds nuw i8, ptr %6, i64 16
  store ptr null, ptr %21, align 8, !tbaa !39
  %22 = call i32 @H5L_link_object(ptr noundef %0, ptr noundef %1, ptr noundef nonnull %6, i64 noundef %3) #9
  %23 = icmp slt i32 %22, 0
  br i1 %23, label %24, label %.thread

24:                                               ; preds = %14
  %25 = load i64, ptr @H5E_DATATYPE_g, align 8, !tbaa !11
  %26 = load i64, ptr @H5E_CANTINIT_g, align 8, !tbaa !11
  %27 = call i32 (ptr, ptr, i32, i64, i64, ptr, ...) @H5E_printf_stack(ptr noundef nonnull @.str, ptr noundef nonnull @__func__.H5T__commit_named, i32 noundef 257, i64 noundef %25, i64 noundef %26, ptr noundef nonnull @.str.18) #9
  %28 = load ptr, ptr %21, align 8
  %.not30 = icmp eq ptr %28, null
  br i1 %.not30, label %.thread, label %29

29:                                               ; preds = %24
  %30 = load ptr, ptr %15, align 8, !tbaa !29
  %31 = getelementptr inbounds nuw i8, ptr %30, i64 8
  %32 = load i32, ptr %31, align 8, !tbaa !30
  %33 = icmp eq i32 %32, 4
  br i1 %33, label %34, label %.thread

34:                                               ; preds = %29
  %35 = load i32, ptr %2, align 8, !tbaa !40
  %36 = icmp eq i32 %35, 2
  br i1 %36, label %37, label %.thread

37:                                               ; preds = %34
  %38 = getelementptr inbounds nuw i8, ptr %2, i64 8
  %39 = load ptr, ptr %38, align 8, !tbaa !41
  %40 = getelementptr inbounds nuw i8, ptr %2, i64 32
  %41 = load i64, ptr %40, align 8, !tbaa !18
  %42 = call i32 @H5FO_top_decr(ptr noundef %39, i64 noundef %41) #9
  %43 = icmp slt i32 %42, 0
  br i1 %43, label %44, label %48

44:                                               ; preds = %37
  %45 = load i64, ptr @H5E_DATASET_g, align 8, !tbaa !11
  %46 = load i64, ptr @H5E_CANTRELEASE_g, align 8, !tbaa !11
  %47 = call i32 (ptr, ptr, i32, i64, i64, ptr, ...) @H5E_printf_stack(ptr noundef nonnull @.str, ptr noundef nonnull @__func__.H5T__commit_named, i32 noundef 268, i64 noundef %45, i64 noundef %46, ptr noundef nonnull @.str.19) #9
  br label %48

48:                                               ; preds = %44, %37
  %49 = load ptr, ptr %38, align 8, !tbaa !41
  %50 = load i64, ptr %40, align 8, !tbaa !18
  %51 = call i32 @H5FO_delete(ptr noundef %49, i64 noundef %50) #9
  %52 = icmp slt i32 %51, 0
  br i1 %52, label %53, label %57

53:                                               ; preds = %48
  %54 = load i64, ptr @H5E_DATASET_g, align 8, !tbaa !11
  %55 = load i64, ptr @H5E_CANTRELEASE_g, align 8, !tbaa !11
  %56 = call i32 (ptr, ptr, i32, i64, i64, ptr, ...) @H5E_printf_stack(ptr noundef nonnull @.str, ptr noundef nonnull @__func__.H5T__commit_named, i32 noundef 271, i64 noundef %54, i64 noundef %55, ptr noundef nonnull @.str.20) #9
  br label %57

57:                                               ; preds = %53, %48
  %58 = getelementptr inbounds nuw i8, ptr %2, i64 48
  %59 = call i32 @H5O_close(ptr noundef nonnull %58, ptr noundef null) #9
  %60 = icmp slt i32 %59, 0
  br i1 %60, label %61, label %65

61:                                               ; preds = %57
  %62 = load i64, ptr @H5E_DATATYPE_g, align 8, !tbaa !11
  %63 = load i64, ptr @H5E_CLOSEERROR_g, align 8, !tbaa !11
  %64 = call i32 (ptr, ptr, i32, i64, i64, ptr, ...) @H5E_printf_stack(ptr noundef nonnull @.str, ptr noundef nonnull @__func__.H5T__commit_named, i32 noundef 275, i64 noundef %62, i64 noundef %63, ptr noundef nonnull @.str.21) #9
  br label %65

65:                                               ; preds = %61, %57
  %66 = load ptr, ptr %38, align 8, !tbaa !41
  %67 = load i64, ptr %40, align 8, !tbaa !18
  %68 = call i32 @H5O_delete(ptr noundef %66, i64 noundef %67) #9
  %69 = icmp slt i32 %68, 0
  br i1 %69, label %70, label %74

70:                                               ; preds = %65
  %71 = load i64, ptr @H5E_DATATYPE_g, align 8, !tbaa !11
  %72 = load i64, ptr @H5E_CANTDELETE_g, align 8, !tbaa !11
  %73 = call i32 (ptr, ptr, i32, i64, i64, ptr, ...) @H5E_printf_stack(ptr noundef nonnull @.str, ptr noundef nonnull @__func__.H5T__commit_named, i32 noundef 279, i64 noundef %71, i64 noundef %72, ptr noundef nonnull @.str.22) #9
  br label %74

74:                                               ; preds = %70, %65
  %75 = call i32 @H5T_set_loc(ptr noundef nonnull %2, ptr noundef null, i32 noundef 1) #9
  %.not = icmp eq i32 %75, 0
  br i1 %.not, label %80, label %76

76:                                               ; preds = %74
  %77 = load i64, ptr @H5E_DATATYPE_g, align 8, !tbaa !11
  %78 = load i64, ptr @H5E_CANTDELETE_g, align 8, !tbaa !11
  %79 = call i32 (ptr, ptr, i32, i64, i64, ptr, ...) @H5E_printf_stack(ptr noundef nonnull @.str, ptr noundef nonnull @__func__.H5T__commit_named, i32 noundef 283, i64 noundef %77, i64 noundef %78, ptr noundef nonnull @.str.23) #9
  br label %80

80:                                               ; preds = %76, %74
  store i32 0, ptr %2, align 8, !tbaa !40
  %81 = load ptr, ptr %15, align 8, !tbaa !29
  %82 = getelementptr inbounds nuw i8, ptr %81, i64 8
  store i32 %18, ptr %82, align 8, !tbaa !30
  br label %.thread

.thread:                                          ; preds = %14, %24, %80, %34, %29, %5
  %.0 = phi i32 [ -1, %80 ], [ -1, %34 ], [ -1, %29 ], [ -1, %24 ], [ 0, %5 ], [ 0, %14 ]
  call void @llvm.lifetime.end.p0(i64 16, ptr nonnull %7) #9
  call void @llvm.lifetime.end.p0(i64 24, ptr nonnull %6) #9
  ret i32 %.0
}